target datalayout = "e-m:e-p270:32:32-p271:32:32-p272:64:64-i64:64-i128:128-f80:128-n8:16:32:64-S128"
target triple = "x86_64-unknown-linux-gnu"

%struct.QemuMutex = type { %union.pthread_mutex_t, i8 }
%union.pthread_mutex_t = type { %struct.__pthread_mutex_s }
%struct.__pthread_mutex_s = type { i32, i32, i32, i32, i32, i16, i16, %struct.__pthread_internal_list }
%struct.__pthread_internal_list = type { ptr, ptr }
%struct.QTailQLink = type { ptr, ptr }
%struct.AioContext = type { %struct._GSource, %struct.QemuRecMutex, ptr, %struct.AioHandlerList, %struct.AioHandlerList, i32, %struct.QemuLockCnt, %struct.BHList, %struct.anon.0, i8, %struct.EventNotifier, %struct.anon.1, ptr, i32, i32, ptr, ptr, %struct.io_uring, %struct.AioHandlerSList, %struct.QEMUTimerListGroup, i32, i64, i64, i64, i64, i64, %struct.AioHandlerList, i8, i32, ptr }
%struct._GSource = type { ptr, ptr, ptr, i32, ptr, i32, i32, i32, ptr, ptr, ptr, ptr, ptr }
%struct.QemuRecMutex = type { %struct.QemuMutex }
%struct.QemuLockCnt = type { i32 }
%struct.BHList = type { ptr }
%struct.anon.0 = type { ptr, ptr }
%struct.EventNotifier = type { i32, i32, i8 }
%struct.anon.1 = type { ptr }
%struct.io_uring = type { %struct.io_uring_sq, %struct.io_uring_cq, i32, i32, i32, [3 x i32] }
%struct.io_uring_sq = type { ptr, ptr, ptr, ptr, ptr, ptr, ptr, ptr, i32, i32, i64, ptr, [4 x i32] }
%struct.io_uring_cq = type { ptr, ptr, ptr, ptr, ptr, ptr, ptr, i64, ptr, [4 x i32] }
%struct.AioHandlerSList = type { ptr }
%struct.QEMUTimerListGroup = type { [4 x ptr] }
%struct.AioHandlerList = type { ptr }
%struct.BdrvGraphRWlock = type { i32, %union.anon }
%union.anon = type { %struct.QTailQLink }

@.str.1 = private unnamed_addr constant [27 x i8] c"../qemu/block/graph-lock.c\00", align 1
@has_writer = internal global i32 0, align 4
@__func__.bdrv_graph_co_rdunlock = private unnamed_addr constant [23 x i8] c"bdrv_graph_co_rdunlock\00", align 1

; Function Attrs: nounwind sspstrong uwtable
define dso_local void @bdrv_graph_co_rdunlock() #0 {
entry:
  %bdrv_graph = alloca ptr, align 8
  %.atomictmp = alloca i32, align 4
  %tmp = alloca i32, align 4
  %atomic-temp = alloca i32, align 4
  %call = call ptr @qemu_get_current_aio_context()
  %bdrv_graph1 = getelementptr inbounds %struct.AioContext, ptr %call, i32 0, i32 2
  %0 = load ptr, ptr %bdrv_graph1, align 8
  store ptr %0, ptr %bdrv_graph, align 8
  br label %do.body

do.body:                                          ; preds = %entry
  br label %while.cond

while.cond:                                       ; preds = %do.end, %do.body
  br i1 false, label %while.body, label %while.end

while.body:                                       ; preds = %while.cond
  br label %do.body2

do.body2:                                         ; preds = %while.body
  call void @g_assertion_message_expr(ptr noundef null, ptr noundef @.str.1, i32 noundef 282, ptr noundef @__func__.bdrv_graph_co_rdunlock, ptr noundef null) #7
  unreachable

do.end:                                           ; No predecessors!
  br label %while.cond

while.end:                                        ; preds = %while.cond
  %1 = load ptr, ptr %bdrv_graph, align 8
  %reader_count = getelementptr inbounds %struct.BdrvGraphRWlock, ptr %1, i32 0, i32 0
  %2 = load ptr, ptr %bdrv_graph, align 8
  %reader_count3 = getelementptr inbounds %struct.BdrvGraphRWlock, ptr %2, i32 0, i32 0
  %3 = load i32, ptr %reader_count3, align 8
  %sub = sub i32 %3, 1
  store i32 %sub, ptr %.atomictmp, align 4
  %4 = load i32, ptr %.atomictmp, align 4
  store atomic i32 %4, ptr %reader_count release, align 8
  br label %do.end4

do.end4:                                          ; preds = %while.end
  call void asm sideeffect "", "~{memory},~{dirflag},~{fpsr},~{flags}"() #8, !srcloc !14
  fence seq_cst
  br label %while.cond5

while.cond5:                                      ; preds = %do.end8, %do.end4
  br i1 false, label %while.body6, label %while.end9

while.body6:                                      ; preds = %while.cond5
  br label %do.body7

do.body7:                                         ; preds = %while.body6
  call void @g_assertion_message_expr(ptr noundef null, ptr noundef @.str.1, i32 noundef 292, ptr noundef @__func__.bdrv_graph_co_rdunlock, ptr noundef null) #7
  unreachable

do.end8:                                          ; No predecessors!
  br label %while.cond5

while.end9:                                       ; preds = %while.cond5
  %5 = load atomic i32, ptr @has_writer monotonic, align 4
  store i32 %5, ptr %atomic-temp, align 4
  %6 = load i32, ptr %atomic-temp, align 4
  store i32 %6, ptr %tmp, align 4
  %7 = load i32, ptr %tmp, align 4
  %tobool = icmp ne i32 %7, 0
  br i1 %tobool, label %if.then, label %if.end

if.then:                                          ; preds = %while.end9
  call void @aio_wait_kick()
  br label %if.end

if.end:                                           ; preds = %if.then, %while.end9
  ret void
}