; Function Attrs: nounwind sspstrong uwtable
define dso_local void @bdrv_graph_co_rdunlock() #0 {
entry:
  %call = tail call ptr @qemu_get_current_aio_context() #5
  %bdrv_graph1 = getelementptr inbounds nuw i8, ptr %call, i64 144
  %0 = load ptr, ptr %bdrv_graph1, align 8
  %1 = load i32, ptr %0, align 8
  %sub = add i32 %1, -1
  store atomic i32 %sub, ptr %0 release, align 8
  tail call void asm sideeffect "", "~{memory},~{dirflag},~{fpsr},~{flags}"() #5, !srcloc !11
  fence seq_cst
  %2 = load atomic i32, ptr @has_writer monotonic, align 4
  %tobool.not = icmp eq i32 %2, 0
  br i1 %tobool.not, label %if.end, label %if.then

if.then:                                          ; preds = %entry
  tail call void @aio_wait_kick() #5
  br label %if.end

if.end:                                           ; preds = %if.then, %entry
  ret void
}